; Function Attrs: nounwind uwtable
define hidden ptr @_Py_join_relfile(ptr noundef %0, ptr noundef %1) local_unnamed_addr #0 {
  %3 = tail call i64 @wcslen(ptr noundef %0) #18
  %4 = add i64 %3, 1
  %5 = tail call i64 @wcslen(ptr noundef %1) #18
  %6 = add i64 %4, %5
  %7 = shl i64 %6, 2
  %8 = add i64 %7, 4
  %9 = tail call ptr @PyMem_RawMalloc(i64 noundef %8) #17
  %10 = icmp eq ptr %9, null
  br i1 %10, label %33, label %11

11:                                               ; preds = %2
  %12 = tail call i64 @wcslen(ptr noundef %0) #18
  %13 = tail call i64 @wcslen(ptr noundef %1) #18
  %14 = icmp ult i64 %6, 4097
  %.not.i = icmp ult i64 %12, %6
  %or.cond.i = select i1 %14, i1 %.not.i, i1 false
  %15 = sub nuw nsw i64 %6, %12
  %.not31.i = icmp ult i64 %13, %15
  %or.cond35.i = select i1 %or.cond.i, i1 %.not31.i, i1 false
  br i1 %or.cond35.i, label %16, label %32

16:                                               ; preds = %11
  %17 = icmp eq i64 %12, 0
  br i1 %17, label %join_relfile.exit, label %18

18:                                               ; preds = %16
  %.not32.i = icmp eq ptr %0, %9
  br i1 %.not32.i, label %21, label %19

19:                                               ; preds = %18
  %20 = tail call ptr @wcscpy(ptr noundef nonnull %9, ptr noundef %0) #17
  br label %21

21:                                               ; preds = %19, %18
  %.not33.i = icmp eq i64 %12, 1
  br i1 %.not33.i, label %29, label %22

22:                                               ; preds = %21
  %23 = getelementptr i32, ptr %0, i64 %12
  %24 = getelementptr i8, ptr %23, i64 -4
  %25 = load i32, ptr %24, align 4, !tbaa !180
  %.not34.i = icmp eq i32 %25, 47
  br i1 %.not34.i, label %29, label %26

26:                                               ; preds = %22
  %27 = getelementptr i32, ptr %9, i64 %12
  store i32 47, ptr %27, align 4, !tbaa !180
  %28 = add nuw nsw i64 %12, 1
  br label %29

29:                                               ; preds = %26, %22, %21
  %.0.i = phi i64 [ %28, %26 ], [ %12, %22 ], [ 1, %21 ]
  %30 = getelementptr i32, ptr %9, i64 %.0.i
  br label %join_relfile.exit

join_relfile.exit:                                ; preds = %16, %29
  %.sink.i = phi ptr [ %30, %29 ], [ %9, %16 ]
  %31 = tail call ptr @wcscpy(ptr noundef %.sink.i, ptr noundef %1) #17
  br label %33

32:                                               ; preds = %11
  tail call void @PyMem_RawFree(ptr noundef nonnull %9) #17
  br label %33

33:                                               ; preds = %join_relfile.exit, %2, %32
  %.0 = phi ptr [ null, %32 ], [ null, %2 ], [ %9, %join_relfile.exit ]
  ret ptr %.0
}